; Function Attrs: mustprogress uwtable
define void @_ZN6duckdb22DictionaryAnalyzeStateC2ERKNS_15CompressionInfoE(ptr noundef nonnull align 8 dereferenceable(178) initializes((0, 48)) %0, ptr noundef nonnull readonly align 8 captures(none) dereferenceable(8) %1) unnamed_addr #0 align 2 personality ptr @__gxx_personality_v0 {
  %3 = getelementptr inbounds nuw i8, ptr %0, i64 8
  %4 = load i64, ptr %1, align 8, !tbaa !59
  store i64 %4, ptr %3, align 8, !tbaa !59
  store ptr getelementptr inbounds nuw inrange(-16, 72) (i8, ptr @_ZTVN6duckdb22DictionaryAnalyzeStateE, i64 16), ptr %0, align 8, !tbaa !60
  %5 = getelementptr inbounds nuw i8, ptr %0, i64 16
  tail call void @llvm.memset.p0.i64(ptr noundef nonnull align 8 dereferenceable(32) %5, i8 0, i64 32, i1 false)
  %6 = tail call noundef nonnull align 8 dereferenceable(32) ptr @_ZN6duckdb9Allocator16DefaultAllocatorEv()
  %7 = getelementptr inbounds nuw i8, ptr %0, i64 48
  tail call void @_ZN6duckdb10StringHeapC1ERNS_9AllocatorE(ptr noundef nonnull align 8 dereferenceable(72) %7, ptr noundef nonnull align 8 dereferenceable(32) %6)
  %8 = getelementptr inbounds nuw i8, ptr %0, i64 120
  %9 = getelementptr inbounds nuw i8, ptr %0, i64 168
  store ptr %9, ptr %8, align 8, !tbaa !97
  %10 = getelementptr inbounds nuw i8, ptr %0, i64 128
  store i64 1, ptr %10, align 8, !tbaa !104
  %11 = getelementptr inbounds nuw i8, ptr %0, i64 136
  %12 = getelementptr inbounds nuw i8, ptr %0, i64 152
  tail call void @llvm.memset.p0.i64(ptr noundef nonnull align 8 dereferenceable(16) %11, i8 0, i64 16, i1 false)
  store float 1.000000e+00, ptr %12, align 8, !tbaa !105
  %13 = getelementptr inbounds nuw i8, ptr %0, i64 160
  tail call void @llvm.memset.p0.i64(ptr noundef nonnull align 8 dereferenceable(18) %13, i8 0, i64 18, i1 false)
  ret void
}